; Function Attrs: nounwind uwtable
define internal i32 @range_contains(ptr noundef %0, ptr noundef %1) #0 {
  %3 = getelementptr i8, ptr %1, i64 8
  %.val = load ptr, ptr %3, align 8, !tbaa !17
  %.not = icmp eq ptr %.val, @PyLong_Type
  %.not8 = icmp eq ptr %.val, @PyBool_Type
  %or.cond = or i1 %.not, %.not8
  br i1 %or.cond, label %4, label %6

4:                                                ; preds = %2
  %5 = tail call fastcc i32 @range_contains_long(ptr noundef %0, ptr noundef nonnull %1)
  br label %9

6:                                                ; preds = %2
  %7 = tail call i64 @_PySequence_IterSearch(ptr noundef %0, ptr noundef nonnull %1, i32 noundef 3) #6
  %8 = trunc i64 %7 to i32
  br label %9

9:                                                ; preds = %6, %4
  %.0 = phi i32 [ %5, %4 ], [ %8, %6 ]
  ret i32 %.0
}